; Function Attrs: nounwind uwtable
define dso_local void @logicalrep_write_rollback_prepared(ptr noundef %0, ptr noundef readonly captures(none) %1, i64 noundef %2, i64 noundef %3) local_unnamed_addr #0 {
  tail call void @enlargeStringInfo(ptr noundef %0, i32 noundef 1) #8
  tail call void @llvm.experimental.noalias.scope.decl(metadata !82)
  %5 = load ptr, ptr %0, align 8, !alias.scope !82
  %6 = getelementptr inbounds nuw i8, ptr %0, i64 8
  %7 = load i32, ptr %6, align 8, !alias.scope !82
  %8 = sext i32 %7 to i64
  %9 = getelementptr inbounds i8, ptr %5, i64 %8
  store i8 114, ptr %9, align 1, !noalias !82
  %10 = add i32 %7, 1
  store i32 %10, ptr %6, align 8, !alias.scope !82
  tail call void @enlargeStringInfo(ptr noundef nonnull %0, i32 noundef 1) #8
  tail call void @llvm.experimental.noalias.scope.decl(metadata !85)
  %11 = load ptr, ptr %0, align 8, !alias.scope !85
  %12 = load i32, ptr %6, align 8, !alias.scope !85
  %13 = sext i32 %12 to i64
  %14 = getelementptr inbounds i8, ptr %11, i64 %13
  store i8 0, ptr %14, align 1, !noalias !85
  %15 = add i32 %12, 1
  store i32 %15, ptr %6, align 8, !alias.scope !85
  tail call void @enlargeStringInfo(ptr noundef nonnull %0, i32 noundef 8) #8
  tail call void @llvm.experimental.noalias.scope.decl(metadata !88)
  %16 = tail call i64 @llvm.bswap.i64(i64 %2)
  %17 = load ptr, ptr %0, align 8, !alias.scope !88
  %18 = load i32, ptr %6, align 8, !alias.scope !88
  %19 = sext i32 %18 to i64
  %20 = getelementptr inbounds i8, ptr %17, i64 %19
  store i64 %16, ptr %20, align 1, !noalias !88
  %21 = add i32 %18, 8
  store i32 %21, ptr %6, align 8, !alias.scope !88
  %22 = getelementptr inbounds nuw i8, ptr %1, i64 40
  %23 = load i64, ptr %22, align 8
  tail call void @enlargeStringInfo(ptr noundef nonnull %0, i32 noundef 8) #8
  tail call void @llvm.experimental.noalias.scope.decl(metadata !91)
  %24 = tail call i64 @llvm.bswap.i64(i64 %23)
  %25 = load ptr, ptr %0, align 8, !alias.scope !91
  %26 = load i32, ptr %6, align 8, !alias.scope !91
  %27 = sext i32 %26 to i64
  %28 = getelementptr inbounds i8, ptr %25, i64 %27
  store i64 %24, ptr %28, align 1, !noalias !91
  %29 = add i32 %26, 8
  store i32 %29, ptr %6, align 8, !alias.scope !91
  tail call void @enlargeStringInfo(ptr noundef nonnull %0, i32 noundef 8) #8
  tail call void @llvm.experimental.noalias.scope.decl(metadata !94)
  %30 = tail call i64 @llvm.bswap.i64(i64 %3)
  %31 = load ptr, ptr %0, align 8, !alias.scope !94
  %32 = load i32, ptr %6, align 8, !alias.scope !94
  %33 = sext i32 %32 to i64
  %34 = getelementptr inbounds i8, ptr %31, i64 %33
  store i64 %30, ptr %34, align 1, !noalias !94
  %35 = add i32 %32, 8
  store i32 %35, ptr %6, align 8, !alias.scope !94
  %36 = getelementptr inbounds nuw i8, ptr %1, i64 80
  %37 = load i64, ptr %36, align 8
  tail call void @enlargeStringInfo(ptr noundef nonnull %0, i32 noundef 8) #8
  tail call void @llvm.experimental.noalias.scope.decl(metadata !97)
  %38 = tail call i64 @llvm.bswap.i64(i64 %37)
  %39 = load ptr, ptr %0, align 8, !alias.scope !97
  %40 = load i32, ptr %6, align 8, !alias.scope !97
  %41 = sext i32 %40 to i64
  %42 = getelementptr inbounds i8, ptr %39, i64 %41
  store i64 %38, ptr %42, align 1, !noalias !97
  %43 = add i32 %40, 8
  store i32 %43, ptr %6, align 8, !alias.scope !97
  %44 = getelementptr inbounds nuw i8, ptr %1, i64 4
  %45 = load i32, ptr %44, align 4
  tail call void @enlargeStringInfo(ptr noundef nonnull %0, i32 noundef 4) #8
  tail call void @llvm.experimental.noalias.scope.decl(metadata !100)
  %46 = tail call i32 @llvm.bswap.i32(i32 %45)
  %47 = load ptr, ptr %0, align 8, !alias.scope !100
  %48 = load i32, ptr %6, align 8, !alias.scope !100
  %49 = sext i32 %48 to i64
  %50 = getelementptr inbounds i8, ptr %47, i64 %49
  store i32 %46, ptr %50, align 1, !noalias !100
  %51 = add i32 %48, 4
  store i32 %51, ptr %6, align 8, !alias.scope !100
  %52 = getelementptr inbounds nuw i8, ptr %1, i64 16
  %53 = load ptr, ptr %52, align 8
  tail call void @pq_sendstring(ptr noundef nonnull %0, ptr noundef %53) #8
  ret void
}